target datalayout = "e-m:e-p270:32:32-p271:32:32-p272:64:64-i64:64-i128:128-f80:128-n8:16:32:64-S128"
target triple = "x86_64-pc-linux-gnu"

%"class.zxing::qrcode::Mode" = type { i32, i32, i32, i32, %"class.std::__cxx11::basic_string" }
%"class.std::__cxx11::basic_string" = type { %"struct.std::__cxx11::basic_string<char>::_Alloc_hider", i64, %union.anon }
%"struct.std::__cxx11::basic_string<char>::_Alloc_hider" = type { ptr }
%union.anon = type { i64, [8 x i8] }

; Function Attrs: mustprogress uwtable
define hidden noundef i32 @_ZNK5zxing6qrcode4Mode21getCharacterCountBitsEPNS0_7VersionE(ptr noundef nonnull align 8 dereferenceable(48) %0, ptr noundef %1) #3 align 2 {
  %3 = alloca i32, align 4
  %4 = alloca ptr, align 8
  %5 = alloca ptr, align 8
  %6 = alloca i32, align 4
  %7 = alloca i32, align 4
  store ptr %0, ptr %4, align 8, !tbaa !3
  store ptr %1, ptr %5, align 8, !tbaa !34
  %8 = load ptr, ptr %4, align 8
  call void @llvm.lifetime.start.p0(i64 4, ptr %6) #2
  %9 = load ptr, ptr %5, align 8, !tbaa !34
  %10 = call noundef i32 @_ZN5zxing6qrcode7Version16getVersionNumberEv(ptr noundef nonnull align 8 dereferenceable(52) %9)
  store i32 %10, ptr %6, align 4, !tbaa !8
  %11 = load i32, ptr %6, align 4, !tbaa !8
  %12 = icmp sle i32 %11, 9
  br i1 %12, label %13, label %16

13:                                               ; preds = %2
  %14 = getelementptr inbounds nuw %"class.zxing::qrcode::Mode", ptr %8, i32 0, i32 0
  %15 = load i32, ptr %14, align 8, !tbaa !12
  store i32 %15, ptr %3, align 4
  store i32 1, ptr %7, align 4
  br label %25

16:                                               ; preds = %2
  %17 = load i32, ptr %6, align 4, !tbaa !8
  %18 = icmp sle i32 %17, 26
  br i1 %18, label %19, label %22

19:                                               ; preds = %16
  %20 = getelementptr inbounds nuw %"class.zxing::qrcode::Mode", ptr %8, i32 0, i32 1
  %21 = load i32, ptr %20, align 4, !tbaa !17
  store i32 %21, ptr %3, align 4
  store i32 1, ptr %7, align 4
  br label %25

22:                                               ; preds = %16
  %23 = getelementptr inbounds nuw %"class.zxing::qrcode::Mode", ptr %8, i32 0, i32 2
  %24 = load i32, ptr %23, align 8, !tbaa !18
  store i32 %24, ptr %3, align 4
  store i32 1, ptr %7, align 4
  br label %25

25:                                               ; preds = %22, %19, %13
  call void @llvm.lifetime.end.p0(i64 4, ptr %6) #2
  %26 = load i32, ptr %3, align 4
  ret i32 %26
}