; Function Attrs: mustprogress uwtable
define hidden noundef i32 @_ZNK5zxing6qrcode4Mode21getCharacterCountBitsEPNS0_7VersionE(ptr noundef nonnull readonly align 8 captures(none) dereferenceable(48) %0, ptr noundef nonnull %1) local_unnamed_addr #2 align 2 {
  %3 = tail call noundef i32 @_ZN5zxing6qrcode7Version16getVersionNumberEv(ptr noundef nonnull align 8 dereferenceable(52) %1)
  %4 = icmp slt i32 %3, 10
  br i1 %4, label %11, label %5

5:                                                ; preds = %2
  %6 = icmp samesign ult i32 %3, 27
  br i1 %6, label %7, label %9

7:                                                ; preds = %5
  %8 = getelementptr inbounds nuw i8, ptr %0, i64 4
  br label %11

9:                                                ; preds = %5
  %10 = getelementptr inbounds nuw i8, ptr %0, i64 8
  br label %11

11:                                               ; preds = %2, %9, %7
  %.0.in = phi ptr [ %8, %7 ], [ %10, %9 ], [ %0, %2 ]
  %.0 = load i32, ptr %.0.in, align 4, !tbaa !37
  ret i32 %.0
}